(lp0
(lp1
S' '
p2
ag2
ag2
ag2
ag2
ag2
ag2
ag2
ag2
ag2
ag2
ag2
ag2
ag2
aS'X'
p3
ag2
ag2
ag2
ag2
ag2
ag2
aS'O'
p4
ag2
ag2
ag2
ag2
ag2
ag2
ag3
ag2
ag2
ag2
ag2
ag2
ag2
ag4
ag2
ag2
ag2
ag2
ag2
ag2
ag3
ag2
ag2
ag2
ag2
ag2
ag2
aaI7
aI7
aI4
a(g4
g3
tp5
a.